target datalayout = "e-m:e-p270:32:32-p271:32:32-p272:64:64-i64:64-i128:128-f80:128-n8:16:32:64-S128"
target triple = "x86_64-pc-linux-gnu"

@hf_ocp1_params_ono = internal global i32 0, align 4
@hf_ocp1_params_class_version = internal global i32 0, align 4
@.str.370 = private unnamed_addr constant [5 x i8] c"Name\00", align 1

; Function Attrs: null_pointer_is_valid sspstrong uwtable
define internal i32 @decode_params_OcaClassVersion(ptr noundef %0, i32 noundef %1, ptr noundef %2) #0 {
  %4 = alloca ptr, align 8
  %5 = alloca i32, align 4
  %6 = alloca ptr, align 8
  store ptr %0, ptr %4, align 8
  store i32 %1, ptr %5, align 4
  store ptr %2, ptr %6, align 8
  %7 = load ptr, ptr %6, align 8
  %8 = load i32, ptr @hf_ocp1_params_class_version, align 4
  %9 = load ptr, ptr %4, align 8
  %10 = load i32, ptr %5, align 4
  %11 = call ptr @proto_tree_add_item(ptr noundef %7, i32 noundef %8, ptr noundef %9, i32 noundef %10, i32 noundef 2, i32 noundef 0)
  ret i32 2
}

; Function Attrs: null_pointer_is_valid sspstrong uwtable
define internal i32 @decode_params_OcaONo(ptr noundef %0, i32 noundef %1, ptr noundef %2) #0 {
  %4 = alloca ptr, align 8
  %5 = alloca i32, align 4
  %6 = alloca ptr, align 8
  store ptr %0, ptr %4, align 8
  store i32 %1, ptr %5, align 4
  store ptr %2, ptr %6, align 8
  %7 = load ptr, ptr %6, align 8
  %8 = load i32, ptr @hf_ocp1_params_ono, align 4
  %9 = load ptr, ptr %4, align 8
  %10 = load i32, ptr %5, align 4
  %11 = call ptr @proto_tree_add_item(ptr noundef %7, i32 noundef %8, ptr noundef %9, i32 noundef %10, i32 noundef 4, i32 noundef 0)
  ret i32 4
}

; Function Attrs: null_pointer_is_valid sspstrong uwtable
define internal i32 @decode_params_OcaManagerDescriptor(ptr noundef %0, i32 noundef %1, ptr noundef %2) #0 {
  %4 = alloca ptr, align 8
  %5 = alloca i32, align 4
  %6 = alloca ptr, align 8
  %7 = alloca i32, align 4
  store ptr %0, ptr %4, align 8
  store i32 %1, ptr %5, align 4
  store ptr %2, ptr %6, align 8
  call void @llvm.lifetime.start.p0(i64 4, ptr %7) #9
  %8 = load i32, ptr %5, align 4
  store i32 %8, ptr %7, align 4
  %9 = load ptr, ptr %4, align 8
  %10 = load i32, ptr %7, align 4
  %11 = load ptr, ptr %6, align 8
  %12 = call i32 @decode_params_OcaONo(ptr noundef %9, i32 noundef %10, ptr noundef %11)
  %13 = load i32, ptr %7, align 4
  %14 = add i32 %13, %12
  store i32 %14, ptr %7, align 4
  %15 = load ptr, ptr %4, align 8
  %16 = load i32, ptr %7, align 4
  %17 = load ptr, ptr %6, align 8
  %18 = call i32 @decode_params_OcaString(ptr noundef %15, i32 noundef %16, ptr noundef %17, ptr noundef @.str.370)
  %19 = load i32, ptr %7, align 4
  %20 = add i32 %19, %18
  store i32 %20, ptr %7, align 4
  %21 = load ptr, ptr %4, align 8
  %22 = load i32, ptr %7, align 4
  %23 = load ptr, ptr %6, align 8
  %24 = call i32 @decode_params_OcaClassID(ptr noundef %21, i32 noundef %22, ptr noundef %23)
  %25 = load i32, ptr %7, align 4
  %26 = add i32 %25, %24
  store i32 %26, ptr %7, align 4
  %27 = load ptr, ptr %4, align 8
  %28 = load i32, ptr %7, align 4
  %29 = load ptr, ptr %6, align 8
  %30 = call i32 @decode_params_OcaClassVersion(ptr noundef %27, i32 noundef %28, ptr noundef %29)
  %31 = load i32, ptr %7, align 4
  %32 = add i32 %31, %30
  store i32 %32, ptr %7, align 4
  %33 = load i32, ptr %7, align 4
  %34 = load i32, ptr %5, align 4
  %35 = sub i32 %33, %34
  call void @llvm.lifetime.end.p0(i64 4, ptr %7) #9
  ret i32 %35
}