; Function Attrs: null_pointer_is_valid sspstrong uwtable
define internal fastcc noundef i32 @decode_params_OcaManagerDescriptor(ptr noundef %0, i32 noundef %1, ptr noundef %2) unnamed_addr #0 {
  %4 = load i32, ptr @hf_ocp1_params_ono, align 4
  %5 = tail call ptr @proto_tree_add_item(ptr noundef %2, i32 noundef %4, ptr noundef %0, i32 noundef %1, i32 noundef 4, i32 noundef 0)
  %6 = add i32 %1, 4
  %7 = tail call fastcc i32 @decode_params_OcaString(ptr noundef %0, i32 noundef %6, ptr noundef %2, ptr noundef nonnull @.str.370)
  %8 = add i32 %7, %6
  %9 = tail call fastcc i32 @decode_params_OcaClassID(ptr noundef %0, i32 noundef %8, ptr noundef %2)
  %10 = add i32 %8, %9
  %11 = load i32, ptr @hf_ocp1_params_class_version, align 4
  %12 = tail call ptr @proto_tree_add_item(ptr noundef %2, i32 noundef %11, ptr noundef %0, i32 noundef %10, i32 noundef 2, i32 noundef 0)
  %reass.sub = sub i32 %10, %1
  %13 = add i32 %reass.sub, 2
  ret i32 %13
}